target datalayout = "e-m:e-p270:32:32-p271:32:32-p272:64:64-i64:64-i128:128-f80:128-n8:16:32:64-S128"
target triple = "x86_64-pc-linux-gnu"

%struct.DHT = type { i32, i32, ptr, [3 x i16], [3 x float], ptr, ptr }
%class.LibRaw = type { ptr, %struct.libraw_data_t, ptr, %struct.libraw_internal_data_t, [2048 x %struct.decode], ptr, ptr, [10 x %struct.tiff_ifd_t], %class.libraw_memmgr, %struct.libraw_callbacks_t, { i64, i64 }, { i64, i64 }, { i64, i64 }, ptr, ptr, ptr, i64, ptr, ptr, ptr, ptr }
%struct.libraw_data_t = type { ptr, %struct.libraw_image_sizes_t, %struct.libraw_iparams_t, %struct.libraw_lensinfo_t, %struct.libraw_makernotes_t, %struct.libraw_shootinginfo_t, %struct.libraw_output_params_t, %struct.libraw_raw_unpack_params_t, i32, i32, %struct.libraw_colordata_t, %struct.libraw_imgother_t, %struct.libraw_thumbnail_t, %struct.libraw_thumbnail_list_t, %struct.libraw_rawdata_t, ptr }
%struct.libraw_image_sizes_t = type { i16, i16, i16, i16, i16, i16, i16, i16, i32, double, i32, [8 x [4 x i32]], i16, [2 x %struct.libraw_raw_inset_crop_t] }
%struct.libraw_raw_inset_crop_t = type { i16, i16, i16, i16 }
%struct.libraw_iparams_t = type { [4 x i8], [64 x i8], [64 x i8], [64 x i8], [64 x i8], [64 x i8], i32, i32, i32, i32, i32, i32, [6 x [6 x i8]], [6 x [6 x i8]], [5 x i8], i32, ptr }
%struct.libraw_lensinfo_t = type { float, float, float, float, float, [128 x i8], [128 x i8], [128 x i8], [128 x i8], i16, %struct.libraw_nikonlens_t, %struct.libraw_dnglens_t, %struct.libraw_makernotes_lens_t }
%struct.libraw_nikonlens_t = type { float, i8, i8, i8, i8 }
%struct.libraw_dnglens_t = type { float, float, float, float }
%struct.libraw_makernotes_lens_t = type { i64, [128 x i8], i16, i16, i64, i16, i16, [64 x i8], i16, [16 x i8], [16 x i8], float, float, float, float, float, float, float, float, float, float, float, float, float, float, float, i64, [128 x i8], i64, [128 x i8], i64, [128 x i8], i16, float }
%struct.libraw_makernotes_t = type { %struct.libraw_canon_makernotes_t, %struct.libraw_nikon_makernotes_t, %struct.libraw_hasselblad_makernotes_t, %struct.libraw_fuji_info_t, %struct.libraw_olympus_makernotes_t, %struct.libraw_sony_info_t, %struct.libraw_kodak_makernotes_t, %struct.libraw_panasonic_makernotes_t, %struct.libraw_pentax_makernotes_t, %struct.libraw_p1_makernotes_t, %struct.libraw_ricoh_makernotes_t, %struct.libraw_samsung_makernotes_t, %struct.libraw_metadata_common_t }
%struct.libraw_canon_makernotes_t = type { i32, i32, i32, i32, [4 x i32], i32, [4 x i32], i16, i16, i8, i16, i16, i16, i16, i16, i16, i16, i16, i16, i16, i16, i16, i16, i32, float, i16, i16, i16, i32, i16, i32, i32, i16, i32, %struct.libraw_area_t, %struct.libraw_area_t, %struct.libraw_area_t, %struct.libraw_area_t, %struct.libraw_area_t, [2 x i16] }
%struct.libraw_area_t = type { i16, i16, i16, i16 }
%struct.libraw_nikon_makernotes_t = type { double, i16, i16, [7 x i8], i8, i8, [13 x i8], [20 x i8], [4 x i8], [4 x i8], [4 x i8], i8, i8, i8, i8, i8, [2 x i8], i8, i8, i8, i8, i8, [4 x i8], [4 x i8], i8, i16, i32, i32, i32, i32, [4 x double], i8, i8, i8, i32, i32, i32, i8, [4 x i16], i16, %struct.libraw_sensor_highspeed_crop_t, i16, i16, i16, i32, [20 x i8], [20 x i8], i32, i16, double, double, double }
%struct.libraw_sensor_highspeed_crop_t = type { i16, i16, i16, i16 }
%struct.libraw_hasselblad_makernotes_t = type { i32, double, [8 x i8], [64 x i8], [64 x i8], i32, i32, i32, i32, [32 x i8], [64 x i8], i32, [2 x i32], [2 x i32], [4 x [3 x double]] }
%struct.libraw_fuji_info_t = type { float, i16, i16, i16, i16, i16, i16, i16, i16, [33 x i8], [33 x i8], float, i16, i16, [2 x i16], i16, i32, i32, i16, [3 x i16], i16, i16, i16, i16, i16, i32, i16, [13 x i8], [5 x i8], [5 x i8], i32, i16, i32, i16, [9 x i16], [32 x i32], i32, i32, i32, [2 x float], i32 }
%struct.libraw_olympus_makernotes_t = type { [6 x i8], i16, [2 x i32], [5 x i16], i16, [2 x i16], i16, i16, [64 x i32], [5 x double], i16, i8, [3 x i16], [3 x i32], i16, i16, i16, i16, double, [4 x i16], [2 x i32], i8, i32, i16, i16 }
%struct.libraw_sony_info_t = type { i16, i8, i8, i32, i8, i32, i8, i8, i16, [2 x i16], i8, i8, i16, [10 x i8], i8, i8, [4 x i16], i16, i8, i8, i8, i16, i32, i16, [2 x i16], i16, i16, i16, i16, i16, i16, i16, i32, float, i16, i32, i32, i16, [20 x i8], i32, i16, i32, i8, i8, i16, i16, i16, i16, i16, i16, i16, i16, i16, i32, i16, [16 x i8], float }
%struct.libraw_kodak_makernotes_t = type { i16, i16, i16, i16, i16, i16, [3 x [3 x float]], [3 x [3 x float]], [3 x [3 x float]], [3 x [3 x float]], [3 x [3 x float]], [3 x [3 x float]], i16, i16, i16, i16, float, float }
%struct.libraw_panasonic_makernotes_t = type { i16, i16, [8 x float], i32, float, [3 x i32], i16, i16, i32, i32 }
%struct.libraw_pentax_makernotes_t = type { [4 x i8], [2 x i16], [2 x i16], i16, i32, i32, i16, i16, i8, i8, i16 }
%struct.libraw_p1_makernotes_t = type { [64 x i8], [64 x i8], [256 x i8], [64 x i8] }
%struct.libraw_ricoh_makernotes_t = type { i16, [2 x i32], [2 x i32], i16, i32, i32, i32, i32, i16, i16, i16, i16, i16, i16, double, double }
%struct.libraw_samsung_makernotes_t = type { [4 x i32], [4 x i32], [2 x i32], [11 x i32], double, i32, [32 x i8] }
%struct.libraw_metadata_common_t = type { float, float, float, float, float, float, float, float, float, float, float, float, float, float, float, float, i16, [128 x i8], float, [4 x %struct.libraw_afinfo_item_t], i32 }
%struct.libraw_afinfo_item_t = type { i32, i16, i32, i32, ptr }
%struct.libraw_shootinginfo_t = type { i16, i16, i16, i16, i16, i16, i16, [64 x i8], [64 x i8] }
%struct.libraw_output_params_t = type { [4 x i32], [4 x i32], [4 x double], [6 x double], [4 x float], float, float, i32, i32, i32, i32, i32, i32, i32, ptr, ptr, ptr, ptr, i32, i32, i32, i32, i32, i32, [4 x i32], i32, i32, float, float, i32, i32, i32, i32, i32, i32, i32, i32, float, float, i32, i32 }
%struct.libraw_raw_unpack_params_t = type { i32, i32, i32, i32, i32, i32, i32, float, [5 x i8], ptr }
%struct.libraw_colordata_t = type { [65536 x i16], [4104 x i32], i32, i32, i32, [4 x i64], float, float, [8 x [8 x i16]], [4 x float], [4 x float], [3 x [4 x float]], [3 x [4 x float]], [3 x [4 x float]], [4 x [3 x float]], %struct.ph1_t, float, float, [64 x i8], [64 x i8], [64 x i8], [64 x i8], [17 x i8], [64 x i8], ptr, i32, [8 x i32], [2 x %struct.libraw_dng_color_t], %struct.libraw_dng_levels_t, [256 x [4 x i32]], [64 x [5 x float]], i32, [2 x %struct.libraw_P1_color_t], i32, i32 }
%struct.ph1_t = type { i32, i32, i32, i32, i32, i32, i32, i32, float }
%struct.libraw_dng_color_t = type { i32, i16, [4 x [4 x float]], [4 x [3 x float]], [3 x [4 x float]] }
%struct.libraw_dng_levels_t = type { i32, [4104 x i32], i32, [4104 x float], float, [4 x i32], [4 x i16], [4 x float], i32, [4 x float], [4 x float], float, float }
%struct.libraw_P1_color_t = type { [9 x float] }
%struct.libraw_imgother_t = type { float, float, float, float, i64, i32, [32 x i32], %struct.libraw_gps_info_t, [512 x i8], [64 x i8], [4 x float] }
%struct.libraw_gps_info_t = type { [3 x float], [3 x float], [3 x float], float, i8, i8, i8, i8, i8 }
%struct.libraw_thumbnail_t = type { i32, i16, i16, i32, i32, ptr }
%struct.libraw_thumbnail_list_t = type { i32, [8 x %struct.libraw_thumbnail_item_t] }
%struct.libraw_thumbnail_item_t = type { i32, i16, i16, i16, i32, i32, i64 }
%struct.libraw_rawdata_t = type { ptr, ptr, ptr, ptr, ptr, ptr, ptr, ptr, ptr, %struct.libraw_iparams_t, %struct.libraw_image_sizes_t, %struct.libraw_internal_output_params_t, %struct.libraw_colordata_t }
%struct.libraw_internal_output_params_t = type { i32, i32, i32, i16, i16 }
%struct.libraw_internal_data_t = type { %struct.internal_data_t, %struct.libraw_internal_output_params_t, %struct.output_data_t, %struct.identify_data_t, %struct.unpacker_data_t }
%struct.internal_data_t = type { ptr, ptr, i32, ptr, i64, i64, [4 x i32] }
%struct.output_data_t = type { ptr, ptr }
%struct.identify_data_t = type { i32, i64, i64, i32, i32, i32 }
%struct.unpacker_data_t = type { i16, [4 x i16], [3 x i16], i32, i64, i64, i64, i64, i64, i64, i32, i32, i32, i32, i32, i32, i32, i32, i32, i32, i32, i32, i32, i32, i32, i32, i32, i64, i32, i32, i32, i32, i32, i32, i32, i32, i32, %struct.pana8_tags_t, [16 x %struct.crx_data_header_t], i32, i32, i16, i16, i32, i32, i32, i32, i32, i32, i32, [20 x i32], i16 }
%struct.pana8_tags_t = type { [6 x i32], [6 x i16], i16, [4 x i16], [17 x i16], [17 x i16], [17 x i16], i16, i16, [5 x i64], [5 x i16], [5 x i32], [5 x i16], [5 x i16] }
%struct.crx_data_header_t = type { i32, i32, i32, i32, i32, i32, i32, i32, i32, i32, i32, i32, i32, i32, i32, i64, i32, ptr, i32, i32, i32, ptr, i32, ptr }
%struct.decode = type { [2 x ptr], i32 }
%struct.tiff_ifd_t = type { i32, i32, i32, i32, i32, i32, i32, i32, i32, i32, i32, i32, i32, i32, i32, ptr, i32, ptr, i32, i32, i32, i32, i32, i32, i32, float, i64, i64, i32, [2 x %struct.libraw_dng_color_t], %struct.libraw_dng_levels_t, i32 }
%class.libraw_memmgr = type <{ ptr, i32, [4 x i8] }>
%struct.libraw_callbacks_t = type { ptr, ptr, ptr, ptr, ptr, ptr, ptr, ptr, ptr, ptr, ptr, ptr, ptr, ptr, ptr, ptr, ptr }

; Function Attrs: inlinehint mustprogress nounwind uwtable
define linkonce_odr noundef i32 @_ZN3DHT9nr_offsetEii(ptr noundef nonnull align 8 dereferenceable(56) %0, i32 noundef %1, i32 noundef %2) #4 comdat align 2 {
  %4 = alloca ptr, align 8
  %5 = alloca i32, align 4
  %6 = alloca i32, align 4
  store ptr %0, ptr %4, align 8, !tbaa !6
  store i32 %1, ptr %5, align 4, !tbaa !81
  store i32 %2, ptr %6, align 4, !tbaa !81
  %7 = load ptr, ptr %4, align 8
  %8 = load i32, ptr %5, align 4, !tbaa !81
  %9 = getelementptr inbounds nuw %struct.DHT, ptr %7, i32 0, i32 1
  %10 = load i32, ptr %9, align 4, !tbaa !79
  %11 = mul nsw i32 %8, %10
  %12 = load i32, ptr %6, align 4, !tbaa !81
  %13 = add nsw i32 %11, %12
  ret i32 %13
}

; Function Attrs: mustprogress nounwind uwtable
define void @_ZN3DHT15refine_ihv_dirsEi(ptr noundef nonnull align 8 dereferenceable(56) %0, i32 noundef %1) #5 align 2 {
  %3 = alloca ptr, align 8
  %4 = alloca i32, align 4
  %5 = alloca i32, align 4
  %6 = alloca i32, align 4
  %7 = alloca i32, align 4
  %8 = alloca i32, align 4
  %9 = alloca i32, align 4
  %10 = alloca i32, align 4
  %11 = alloca i32, align 4
  store ptr %0, ptr %3, align 8, !tbaa !6
  store i32 %1, ptr %4, align 4, !tbaa !81
  %12 = load ptr, ptr %3, align 8
  call void @llvm.lifetime.start.p0(i64 4, ptr %5) #11
  %13 = getelementptr inbounds nuw %struct.DHT, ptr %12, i32 0, i32 5
  %14 = load ptr, ptr %13, align 8, !tbaa !13
  %15 = getelementptr inbounds nuw %class.LibRaw, ptr %14, i32 0, i32 1
  %16 = getelementptr inbounds nuw %struct.libraw_data_t, ptr %15, i32 0, i32 1
  %17 = getelementptr inbounds nuw %struct.libraw_image_sizes_t, ptr %16, i32 0, i32 7
  %18 = load i16, ptr %17, align 2, !tbaa !78
  %19 = zext i16 %18 to i32
  store i32 %19, ptr %5, align 4, !tbaa !81
  call void @llvm.lifetime.start.p0(i64 4, ptr %6) #11
  store i32 0, ptr %6, align 4, !tbaa !81
  br label %20

20:                                               ; preds = %220, %2
  %21 = load i32, ptr %6, align 4, !tbaa !81
  %22 = load i32, ptr %5, align 4, !tbaa !81
  %23 = icmp slt i32 %21, %22
  br i1 %23, label %25, label %24

24:                                               ; preds = %20
  store i32 2, ptr %7, align 4
  call void @llvm.lifetime.end.p0(i64 4, ptr %6) #11
  br label %223

25:                                               ; preds = %20
  call void @llvm.lifetime.start.p0(i64 4, ptr %8) #11
  %26 = load i32, ptr %6, align 4, !tbaa !81
  %27 = add nsw i32 %26, 4
  store i32 %27, ptr %8, align 4, !tbaa !81
  call void @llvm.lifetime.start.p0(i64 4, ptr %9) #11
  %28 = load i32, ptr %4, align 4, !tbaa !81
  %29 = add nsw i32 %28, 4
  store i32 %29, ptr %9, align 4, !tbaa !81
  %30 = getelementptr inbounds nuw %struct.DHT, ptr %12, i32 0, i32 6
  %31 = load ptr, ptr %30, align 8, !tbaa !82
  %32 = load i32, ptr %9, align 4, !tbaa !81
  %33 = load i32, ptr %8, align 4, !tbaa !81
  %34 = call noundef i32 @_ZN3DHT9nr_offsetEii(ptr noundef nonnull align 8 dereferenceable(56) %12, i32 noundef %32, i32 noundef %33) #11
  %35 = sext i32 %34 to i64
  %36 = getelementptr inbounds i8, ptr %31, i64 %35
  %37 = load i8, ptr %36, align 1, !tbaa !95
  %38 = sext i8 %37 to i32
  %39 = and i32 %38, 1
  %40 = icmp ne i32 %39, 0
  br i1 %40, label %41, label %42

41:                                               ; preds = %25
  store i32 4, ptr %7, align 4
  br label %217

42:                                               ; preds = %25
  call void @llvm.lifetime.start.p0(i64 4, ptr %10) #11
  %43 = getelementptr inbounds nuw %struct.DHT, ptr %12, i32 0, i32 6
  %44 = load ptr, ptr %43, align 8, !tbaa !82
  %45 = load i32, ptr %9, align 4, !tbaa !81
  %46 = sub nsw i32 %45, 1
  %47 = load i32, ptr %8, align 4, !tbaa !81
  %48 = call noundef i32 @_ZN3DHT9nr_offsetEii(ptr noundef nonnull align 8 dereferenceable(56) %12, i32 noundef %46, i32 noundef %47) #11
  %49 = sext i32 %48 to i64
  %50 = getelementptr inbounds i8, ptr %44, i64 %49
  %51 = load i8, ptr %50, align 1, !tbaa !95
  %52 = sext i8 %51 to i32
  %53 = and i32 %52, 4
  %54 = getelementptr inbounds nuw %struct.DHT, ptr %12, i32 0, i32 6
  %55 = load ptr, ptr %54, align 8, !tbaa !82
  %56 = load i32, ptr %9, align 4, !tbaa !81
  %57 = add nsw i32 %56, 1
  %58 = load i32, ptr %8, align 4, !tbaa !81
  %59 = call noundef i32 @_ZN3DHT9nr_offsetEii(ptr noundef nonnull align 8 dereferenceable(56) %12, i32 noundef %57, i32 noundef %58) #11
  %60 = sext i32 %59 to i64
  %61 = getelementptr inbounds i8, ptr %55, i64 %60
  %62 = load i8, ptr %61, align 1, !tbaa !95
  %63 = sext i8 %62 to i32
  %64 = and i32 %63, 4
  %65 = add nsw i32 %53, %64
  %66 = getelementptr inbounds nuw %struct.DHT, ptr %12, i32 0, i32 6
  %67 = load ptr, ptr %66, align 8, !tbaa !82
  %68 = load i32, ptr %9, align 4, !tbaa !81
  %69 = load i32, ptr %8, align 4, !tbaa !81
  %70 = sub nsw i32 %69, 1
  %71 = call noundef i32 @_ZN3DHT9nr_offsetEii(ptr noundef nonnull align 8 dereferenceable(56) %12, i32 noundef %68, i32 noundef %70) #11
  %72 = sext i32 %71 to i64
  %73 = getelementptr inbounds i8, ptr %67, i64 %72
  %74 = load i8, ptr %73, align 1, !tbaa !95
  %75 = sext i8 %74 to i32
  %76 = and i32 %75, 4
  %77 = add nsw i32 %65, %76
  %78 = getelementptr inbounds nuw %struct.DHT, ptr %12, i32 0, i32 6
  %79 = load ptr, ptr %78, align 8, !tbaa !82
  %80 = load i32, ptr %9, align 4, !tbaa !81
  %81 = load i32, ptr %8, align 4, !tbaa !81
  %82 = add nsw i32 %81, 1
  %83 = call noundef i32 @_ZN3DHT9nr_offsetEii(ptr noundef nonnull align 8 dereferenceable(56) %12, i32 noundef %80, i32 noundef %82) #11
  %84 = sext i32 %83 to i64
  %85 = getelementptr inbounds i8, ptr %79, i64 %84
  %86 = load i8, ptr %85, align 1, !tbaa !95
  %87 = sext i8 %86 to i32
  %88 = and i32 %87, 4
  %89 = add nsw i32 %77, %88
  store i32 %89, ptr %10, align 4, !tbaa !81
  call void @llvm.lifetime.start.p0(i64 4, ptr %11) #11
  %90 = getelementptr inbounds nuw %struct.DHT, ptr %12, i32 0, i32 6
  %91 = load ptr, ptr %90, align 8, !tbaa !82
  %92 = load i32, ptr %9, align 4, !tbaa !81
  %93 = sub nsw i32 %92, 1
  %94 = load i32, ptr %8, align 4, !tbaa !81
  %95 = call noundef i32 @_ZN3DHT9nr_offsetEii(ptr noundef nonnull align 8 dereferenceable(56) %12, i32 noundef %93, i32 noundef %94) #11
  %96 = sext i32 %95 to i64
  %97 = getelementptr inbounds i8, ptr %91, i64 %96
  %98 = load i8, ptr %97, align 1, !tbaa !95
  %99 = sext i8 %98 to i32
  %100 = and i32 %99, 2
  %101 = getelementptr inbounds nuw %struct.DHT, ptr %12, i32 0, i32 6
  %102 = load ptr, ptr %101, align 8, !tbaa !82
  %103 = load i32, ptr %9, align 4, !tbaa !81
  %104 = add nsw i32 %103, 1
  %105 = load i32, ptr %8, align 4, !tbaa !81
  %106 = call noundef i32 @_ZN3DHT9nr_offsetEii(ptr noundef nonnull align 8 dereferenceable(56) %12, i32 noundef %104, i32 noundef %105) #11
  %107 = sext i32 %106 to i64
  %108 = getelementptr inbounds i8, ptr %102, i64 %107
  %109 = load i8, ptr %108, align 1, !tbaa !95
  %110 = sext i8 %109 to i32
  %111 = and i32 %110, 2
  %112 = add nsw i32 %100, %111
  %113 = getelementptr inbounds nuw %struct.DHT, ptr %12, i32 0, i32 6
  %114 = load ptr, ptr %113, align 8, !tbaa !82
  %115 = load i32, ptr %9, align 4, !tbaa !81
  %116 = load i32, ptr %8, align 4, !tbaa !81
  %117 = sub nsw i32 %116, 1
  %118 = call noundef i32 @_ZN3DHT9nr_offsetEii(ptr noundef nonnull align 8 dereferenceable(56) %12, i32 noundef %115, i32 noundef %117) #11
  %119 = sext i32 %118 to i64
  %120 = getelementptr inbounds i8, ptr %114, i64 %119
  %121 = load i8, ptr %120, align 1, !tbaa !95
  %122 = sext i8 %121 to i32
  %123 = and i32 %122, 2
  %124 = add nsw i32 %112, %123
  %125 = getelementptr inbounds nuw %struct.DHT, ptr %12, i32 0, i32 6
  %126 = load ptr, ptr %125, align 8, !tbaa !82
  %127 = load i32, ptr %9, align 4, !tbaa !81
  %128 = load i32, ptr %8, align 4, !tbaa !81
  %129 = add nsw i32 %128, 1
  %130 = call noundef i32 @_ZN3DHT9nr_offsetEii(ptr noundef nonnull align 8 dereferenceable(56) %12, i32 noundef %127, i32 noundef %129) #11
  %131 = sext i32 %130 to i64
  %132 = getelementptr inbounds i8, ptr %126, i64 %131
  %133 = load i8, ptr %132, align 1, !tbaa !95
  %134 = sext i8 %133 to i32
  %135 = and i32 %134, 2
  %136 = add nsw i32 %124, %135
  store i32 %136, ptr %11, align 4, !tbaa !81
  %137 = load i32, ptr %10, align 4, !tbaa !81
  %138 = sdiv i32 %137, 4
  store i32 %138, ptr %10, align 4, !tbaa !81
  %139 = load i32, ptr %11, align 4, !tbaa !81
  %140 = sdiv i32 %139, 2
  store i32 %140, ptr %11, align 4, !tbaa !81
  %141 = getelementptr inbounds nuw %struct.DHT, ptr %12, i32 0, i32 6
  %142 = load ptr, ptr %141, align 8, !tbaa !82
  %143 = load i32, ptr %9, align 4, !tbaa !81
  %144 = load i32, ptr %8, align 4, !tbaa !81
  %145 = call noundef i32 @_ZN3DHT9nr_offsetEii(ptr noundef nonnull align 8 dereferenceable(56) %12, i32 noundef %143, i32 noundef %144) #11
  %146 = sext i32 %145 to i64
  %147 = getelementptr inbounds i8, ptr %142, i64 %146
  %148 = load i8, ptr %147, align 1, !tbaa !95
  %149 = sext i8 %148 to i32
  %150 = and i32 %149, 4
  %151 = icmp ne i32 %150, 0
  br i1 %151, label %152, label %178

152:                                              ; preds = %42
  %153 = load i32, ptr %11, align 4, !tbaa !81
  %154 = icmp sgt i32 %153, 3
  br i1 %154, label %155, label %178

155:                                              ; preds = %152
  %156 = getelementptr inbounds nuw %struct.DHT, ptr %12, i32 0, i32 6
  %157 = load ptr, ptr %156, align 8, !tbaa !82
  %158 = load i32, ptr %9, align 4, !tbaa !81
  %159 = load i32, ptr %8, align 4, !tbaa !81
  %160 = call noundef i32 @_ZN3DHT9nr_offsetEii(ptr noundef nonnull align 8 dereferenceable(56) %12, i32 noundef %158, i32 noundef %159) #11
  %161 = sext i32 %160 to i64
  %162 = getelementptr inbounds i8, ptr %157, i64 %161
  %163 = load i8, ptr %162, align 1, !tbaa !95
  %164 = sext i8 %163 to i32
  %165 = and i32 %164, -5
  %166 = trunc i32 %165 to i8
  store i8 %166, ptr %162, align 1, !tbaa !95
  %167 = getelementptr inbounds nuw %struct.DHT, ptr %12, i32 0, i32 6
  %168 = load ptr, ptr %167, align 8, !tbaa !82
  %169 = load i32, ptr %9, align 4, !tbaa !81
  %170 = load i32, ptr %8, align 4, !tbaa !81
  %171 = call noundef i32 @_ZN3DHT9nr_offsetEii(ptr noundef nonnull align 8 dereferenceable(56) %12, i32 noundef %169, i32 noundef %170) #11
  %172 = sext i32 %171 to i64
  %173 = getelementptr inbounds i8, ptr %168, i64 %172
  %174 = load i8, ptr %173, align 1, !tbaa !95
  %175 = sext i8 %174 to i32
  %176 = or i32 %175, 2
  %177 = trunc i32 %176 to i8
  store i8 %177, ptr %173, align 1, !tbaa !95
  br label %178

178:                                              ; preds = %155, %152, %42
  %179 = getelementptr inbounds nuw %struct.DHT, ptr %12, i32 0, i32 6
  %180 = load ptr, ptr %179, align 8, !tbaa !82
  %181 = load i32, ptr %9, align 4, !tbaa !81
  %182 = load i32, ptr %8, align 4, !tbaa !81
  %183 = call noundef i32 @_ZN3DHT9nr_offsetEii(ptr noundef nonnull align 8 dereferenceable(56) %12, i32 noundef %181, i32 noundef %182) #11
  %184 = sext i32 %183 to i64
  %185 = getelementptr inbounds i8, ptr %180, i64 %184
  %186 = load i8, ptr %185, align 1, !tbaa !95
  %187 = sext i8 %186 to i32
  %188 = and i32 %187, 2
  %189 = icmp ne i32 %188, 0
  br i1 %189, label %190, label %216

190:                                              ; preds = %178
  %191 = load i32, ptr %10, align 4, !tbaa !81
  %192 = icmp sgt i32 %191, 3
  br i1 %192, label %193, label %216

193:                                              ; preds = %190
  %194 = getelementptr inbounds nuw %struct.DHT, ptr %12, i32 0, i32 6
  %195 = load ptr, ptr %194, align 8, !tbaa !82
  %196 = load i32, ptr %9, align 4, !tbaa !81
  %197 = load i32, ptr %8, align 4, !tbaa !81
  %198 = call noundef i32 @_ZN3DHT9nr_offsetEii(ptr noundef nonnull align 8 dereferenceable(56) %12, i32 noundef %196, i32 noundef %197) #11
  %199 = sext i32 %198 to i64
  %200 = getelementptr inbounds i8, ptr %195, i64 %199
  %201 = load i8, ptr %200, align 1, !tbaa !95
  %202 = sext i8 %201 to i32
  %203 = and i32 %202, -3
  %204 = trunc i32 %203 to i8
  store i8 %204, ptr %200, align 1, !tbaa !95
  %205 = getelementptr inbounds nuw %struct.DHT, ptr %12, i32 0, i32 6
  %206 = load ptr, ptr %205, align 8, !tbaa !82
  %207 = load i32, ptr %9, align 4, !tbaa !81
  %208 = load i32, ptr %8, align 4, !tbaa !81
  %209 = call noundef i32 @_ZN3DHT9nr_offsetEii(ptr noundef nonnull align 8 dereferenceable(56) %12, i32 noundef %207, i32 noundef %208) #11
  %210 = sext i32 %209 to i64
  %211 = getelementptr inbounds i8, ptr %206, i64 %210
  %212 = load i8, ptr %211, align 1, !tbaa !95
  %213 = sext i8 %212 to i32
  %214 = or i32 %213, 4
  %215 = trunc i32 %214 to i8
  store i8 %215, ptr %211, align 1, !tbaa !95
  br label %216

216:                                              ; preds = %193, %190, %178
  call void @llvm.lifetime.end.p0(i64 4, ptr %11) #11
  call void @llvm.lifetime.end.p0(i64 4, ptr %10) #11
  store i32 0, ptr %7, align 4
  br label %217

217:                                              ; preds = %216, %41
  call void @llvm.lifetime.end.p0(i64 4, ptr %9) #11
  call void @llvm.lifetime.end.p0(i64 4, ptr %8) #11
  %218 = load i32, ptr %7, align 4
  switch i32 %218, label %224 [
    i32 0, label %219
    i32 4, label %220
  ]

219:                                              ; preds = %217
  br label %220

220:                                              ; preds = %219, %217
  %221 = load i32, ptr %6, align 4, !tbaa !81
  %222 = add nsw i32 %221, 1
  store i32 %222, ptr %6, align 4, !tbaa !81
  br label %20, !llvm.loop !117

223:                                              ; preds = %24
  call void @llvm.lifetime.end.p0(i64 4, ptr %5) #11
  ret void

224:                                              ; preds = %217
  unreachable
}