; Function Attrs: mustprogress nofree norecurse nosync nounwind memory(readwrite, inaccessiblemem: none) uwtable
define void @_ZN3DHT15refine_ihv_dirsEi(ptr noundef nonnull readonly align 8 captures(none) dereferenceable(56) %0, i32 noundef %1) local_unnamed_addr #4 align 2 {
  %3 = getelementptr inbounds nuw i8, ptr %0, i64 40
  %4 = load ptr, ptr %3, align 8, !tbaa !87
  %5 = getelementptr inbounds nuw i8, ptr %4, i64 30
  %6 = load i16, ptr %5, align 2, !tbaa !75
  %7 = zext i16 %6 to i32
  %.not48 = icmp eq i16 %6, 0
  br i1 %.not48, label %._crit_edge, label %.lr.ph

.lr.ph:                                           ; preds = %2
  %8 = add nsw i32 %1, 4
  %9 = getelementptr inbounds nuw i8, ptr %0, i64 48
  %10 = getelementptr inbounds nuw i8, ptr %0, i64 4
  %11 = add nsw i32 %1, 3
  %12 = add nsw i32 %1, 5
  br label %13

._crit_edge:                                      ; preds = %82, %2
  ret void

13:                                               ; preds = %.lr.ph, %82
  %.047 = phi i32 [ 0, %.lr.ph ], [ %83, %82 ]
  %14 = add nuw nsw i32 %.047, 4
  %15 = load ptr, ptr %9, align 8, !tbaa !78
  %16 = load i32, ptr %10, align 4, !tbaa !76
  %17 = mul nsw i32 %16, %8
  %18 = add nsw i32 %17, %14
  %19 = sext i32 %18 to i64
  %20 = getelementptr inbounds i8, ptr %15, i64 %19
  %21 = load i8, ptr %20, align 1, !tbaa !96
  %22 = and i8 %21, 1
  %.not = icmp eq i8 %22, 0
  br i1 %.not, label %23, label %82

23:                                               ; preds = %13
  %24 = mul nsw i32 %16, %11
  %25 = add nsw i32 %24, %14
  %26 = sext i32 %25 to i64
  %27 = getelementptr inbounds i8, ptr %15, i64 %26
  %28 = load i8, ptr %27, align 1, !tbaa !96
  %29 = and i8 %28, 4
  %30 = mul nsw i32 %16, %12
  %31 = add nsw i32 %30, %14
  %32 = sext i32 %31 to i64
  %33 = getelementptr inbounds i8, ptr %15, i64 %32
  %34 = load i8, ptr %33, align 1, !tbaa !96
  %35 = and i8 %34, 4
  %narrow = add nuw nsw i8 %35, %29
  %36 = add nuw nsw i32 %.047, 3
  %37 = add nsw i32 %36, %17
  %38 = sext i32 %37 to i64
  %39 = getelementptr inbounds i8, ptr %15, i64 %38
  %40 = load i8, ptr %39, align 1, !tbaa !96
  %41 = and i8 %40, 4
  %narrow42 = add nuw nsw i8 %narrow, %41
  %42 = add nuw nsw i32 %.047, 5
  %43 = add nsw i32 %42, %17
  %44 = sext i32 %43 to i64
  %45 = getelementptr inbounds i8, ptr %15, i64 %44
  %46 = load i8, ptr %45, align 1, !tbaa !96
  %47 = and i8 %46, 4
  %narrow43 = add nuw nsw i8 %narrow42, %47
  %48 = and i8 %28, 2
  %49 = and i8 %34, 2
  %narrow44 = add nuw nsw i8 %49, %48
  %50 = and i8 %40, 2
  %narrow45 = add nuw nsw i8 %narrow44, %50
  %51 = and i8 %46, 2
  %narrow46 = add nuw nsw i8 %narrow45, %51
  %52 = and i8 %21, 4
  %53 = icmp ne i8 %52, 0
  %54 = icmp samesign ugt i8 %narrow46, 6
  %or.cond = select i1 %53, i1 %54, i1 false
  br i1 %or.cond, label %55, label %65

55:                                               ; preds = %23
  %56 = and i8 %21, -6
  store i8 %56, ptr %20, align 1, !tbaa !96
  %57 = load ptr, ptr %9, align 8, !tbaa !78
  %58 = load i32, ptr %10, align 4, !tbaa !76
  %59 = mul nsw i32 %58, %8
  %60 = add nsw i32 %59, %14
  %61 = sext i32 %60 to i64
  %62 = getelementptr inbounds i8, ptr %57, i64 %61
  %63 = load i8, ptr %62, align 1, !tbaa !96
  %64 = or i8 %63, 2
  store i8 %64, ptr %62, align 1, !tbaa !96
  %.pre = load ptr, ptr %9, align 8, !tbaa !78
  %.pre49 = load i32, ptr %10, align 4, !tbaa !76
  %.pre50 = mul nsw i32 %.pre49, %8
  %.pre51 = add nsw i32 %.pre50, %14
  %.pre53 = sext i32 %.pre51 to i64
  br label %65

65:                                               ; preds = %55, %23
  %.pre-phi54 = phi i64 [ %.pre53, %55 ], [ %19, %23 ]
  %66 = phi ptr [ %.pre, %55 ], [ %15, %23 ]
  %67 = getelementptr inbounds i8, ptr %66, i64 %.pre-phi54
  %68 = load i8, ptr %67, align 1, !tbaa !96
  %69 = and i8 %68, 2
  %70 = icmp ne i8 %69, 0
  %71 = icmp samesign ugt i8 %narrow43, 12
  %or.cond3 = select i1 %70, i1 %71, i1 false
  br i1 %or.cond3, label %72, label %82

72:                                               ; preds = %65
  %73 = and i8 %68, -3
  store i8 %73, ptr %67, align 1, !tbaa !96
  %74 = load ptr, ptr %9, align 8, !tbaa !78
  %75 = load i32, ptr %10, align 4, !tbaa !76
  %76 = mul nsw i32 %75, %8
  %77 = add nsw i32 %76, %14
  %78 = sext i32 %77 to i64
  %79 = getelementptr inbounds i8, ptr %74, i64 %78
  %80 = load i8, ptr %79, align 1, !tbaa !96
  %81 = or i8 %80, 4
  store i8 %81, ptr %79, align 1, !tbaa !96
  br label %82

82:                                               ; preds = %65, %72, %13
  %83 = add nuw nsw i32 %.047, 1
  %exitcond.not = icmp eq i32 %83, %7
  br i1 %exitcond.not, label %._crit_edge, label %13, !llvm.loop !114
}